; Function Attrs: mustprogress uwtable
define noundef i32 @_ZN6icu_7711ICU_Utility14skipWhitespaceERKNS_13UnicodeStringERia(ptr noundef nonnull align 8 dereferenceable(64) %0, ptr noundef nonnull align 4 captures(none) dereferenceable(4) %1, i8 noundef signext %2) local_unnamed_addr #1 align 2 {
  %4 = load i32, ptr %1, align 4, !tbaa !12
  %5 = getelementptr inbounds nuw i8, ptr %0, i64 8
  %6 = load i16, ptr %5, align 8, !tbaa !21
  %7 = and i16 %6, 17
  %.not.i = icmp eq i16 %7, 0
  br i1 %.not.i, label %8, label %_ZNK6icu_7713UnicodeString9getBufferEv.exit

8:                                                ; preds = %3
  %9 = and i16 %6, 2
  %.not2.i = icmp eq i16 %9, 0
  br i1 %.not2.i, label %12, label %10

10:                                               ; preds = %8
  %11 = getelementptr inbounds nuw i8, ptr %0, i64 10
  br label %_ZNK6icu_7713UnicodeString9getBufferEv.exit

12:                                               ; preds = %8
  %13 = getelementptr inbounds nuw i8, ptr %0, i64 24
  %14 = load ptr, ptr %13, align 8, !tbaa !21
  br label %_ZNK6icu_7713UnicodeString9getBufferEv.exit

_ZNK6icu_7713UnicodeString9getBufferEv.exit:      ; preds = %3, %10, %12
  %.0.i = phi ptr [ %11, %10 ], [ %14, %12 ], [ null, %3 ]
  %15 = sext i32 %4 to i64
  %16 = getelementptr inbounds i16, ptr %.0.i, i64 %15
  %17 = icmp slt i16 %6, 0
  %18 = ashr i16 %6, 5
  %19 = sext i16 %18 to i32
  %20 = getelementptr inbounds nuw i8, ptr %0, i64 12
  %21 = load i32, ptr %20, align 4
  %22 = select i1 %17, i32 %21, i32 %19
  %23 = sub nsw i32 %22, %4
  %24 = tail call noundef ptr @_ZN6icu_7712PatternProps14skipWhiteSpaceEPKDsi(ptr noundef %16, i32 noundef %23)
  %25 = ptrtoint ptr %24 to i64
  %26 = ptrtoint ptr %.0.i to i64
  %27 = sub i64 %25, %26
  %28 = lshr exact i64 %27, 1
  %29 = trunc i64 %28 to i32
  %.not = icmp eq i8 %2, 0
  br i1 %.not, label %31, label %30

30:                                               ; preds = %_ZNK6icu_7713UnicodeString9getBufferEv.exit
  store i32 %29, ptr %1, align 4, !tbaa !12
  br label %31

31:                                               ; preds = %30, %_ZNK6icu_7713UnicodeString9getBufferEv.exit
  ret i32 %29
}